; Function Attrs: nofree nounwind uwtable
define hidden void @ssl_write_buffer_set_len(ptr noundef readonly captures(none) %0, i64 noundef %1) local_unnamed_addr #4 {
  %3 = getelementptr inbounds nuw i8, ptr %0, i64 80
  %4 = load ptr, ptr %3, align 8, !tbaa !6
  %5 = getelementptr inbounds nuw i8, ptr %4, i64 116
  %6 = load i16, ptr %5, align 4, !tbaa !57
  %7 = zext i16 %6 to i64
  %8 = icmp ugt i64 %1, %7
  br i1 %8, label %9, label %10

9:                                                ; preds = %2
  tail call void @abort() #11
  unreachable

10:                                               ; preds = %2
  %11 = trunc nuw i64 %1 to i16
  %12 = getelementptr inbounds nuw i8, ptr %4, i64 114
  store i16 %11, ptr %12, align 2, !tbaa !56
  ret void
}